target datalayout = "e-m:e-p270:32:32-p271:32:32-p272:64:64-i64:64-i128:128-f80:128-n8:16:32:64-S128"
target triple = "x86_64-pc-linux-gnu"

%struct.Gia_Man_t_ = type { ptr, ptr, i32, i32, i32, i32, ptr, ptr, i32, i32, i32, ptr, ptr, %struct.Vec_Int_t_, %struct.Vec_Int_t_, i32, i32, i32, %struct.Vec_Int_t_, ptr, ptr, ptr, i32, i32, i32, i32, ptr, ptr, ptr, ptr, ptr, i32, i32, ptr, i32, ptr, ptr, ptr, ptr, ptr, ptr, ptr, ptr, ptr, ptr, ptr, ptr, ptr, ptr, ptr, ptr, ptr, ptr, %struct.Vec_Int_t_, %struct.Vec_Int_t_, ptr, ptr, ptr, ptr, ptr, ptr, ptr, ptr, ptr, ptr, ptr, ptr, ptr, ptr, ptr, ptr, ptr, ptr, ptr, ptr, ptr, i32, float, float, ptr, ptr, i32, ptr, ptr, ptr, ptr, ptr, ptr, ptr, ptr, ptr, ptr, ptr, ptr, ptr, ptr, ptr, i64, i64, ptr, ptr, i32, i32, i32, i32, i32, i32, i32, i32, i32, i32, i32, i32, ptr, ptr, ptr, ptr, ptr, ptr, ptr, ptr, i32, i32, i32, ptr, i32, i32, ptr, ptr, ptr, ptr, ptr, ptr, i32, i32, ptr, %struct.Vec_Int_t_, %struct.Vec_Int_t_, %struct.Vec_Int_t_, ptr, ptr, ptr, i32, i32, i32, i32, ptr, ptr, ptr, ptr, ptr }
%struct.Vec_Int_t_ = type { i32, i32, ptr }

@.str = private unnamed_addr constant [32 x i8] c"Table size = %d. Entries = %d. \00", align 1
@.str.1 = private unnamed_addr constant [25 x i8] c"Hits = %d. Misses = %d.\0A\00", align 1
@.str.2 = private unnamed_addr constant [4 x i8] c"%d \00", align 1
@.str.3 = private unnamed_addr constant [2 x i8] c"\0A\00", align 1

; Function Attrs: inlinehint nounwind uwtable
define internal i32 @Vec_IntEntry(ptr noundef %0, i32 noundef %1) #1 {
  %3 = alloca ptr, align 8
  %4 = alloca i32, align 4
  store ptr %0, ptr %3, align 8, !tbaa !35
  store i32 %1, ptr %4, align 4, !tbaa !8
  %5 = load ptr, ptr %3, align 8, !tbaa !35
  %6 = getelementptr inbounds nuw %struct.Vec_Int_t_, ptr %5, i32 0, i32 2
  %7 = load ptr, ptr %6, align 8, !tbaa !36
  %8 = load i32, ptr %4, align 4, !tbaa !8
  %9 = sext i32 %8 to i64
  %10 = getelementptr inbounds i32, ptr %7, i64 %9
  %11 = load i32, ptr %10, align 4, !tbaa !8
  ret i32 %11
}

; Function Attrs: inlinehint nounwind uwtable
define internal i32 @Abc_MinInt(i32 noundef %0, i32 noundef %1) #1 {
  %3 = alloca i32, align 4
  %4 = alloca i32, align 4
  store i32 %0, ptr %3, align 4, !tbaa !8
  store i32 %1, ptr %4, align 4, !tbaa !8
  %5 = load i32, ptr %3, align 4, !tbaa !8
  %6 = load i32, ptr %4, align 4, !tbaa !8
  %7 = icmp slt i32 %5, %6
  br i1 %7, label %8, label %10

8:                                                ; preds = %2
  %9 = load i32, ptr %3, align 4, !tbaa !8
  br label %12

10:                                               ; preds = %2
  %11 = load i32, ptr %4, align 4, !tbaa !8
  br label %12

12:                                               ; preds = %10, %8
  %13 = phi i32 [ %9, %8 ], [ %11, %10 ]
  ret i32 %13
}

; Function Attrs: inlinehint nounwind uwtable
define internal i32 @Gia_ManAndNum(ptr noundef %0) #1 {
  %2 = alloca ptr, align 8
  store ptr %0, ptr %2, align 8, !tbaa !3
  %3 = load ptr, ptr %2, align 8, !tbaa !3
  %4 = getelementptr inbounds nuw %struct.Gia_Man_t_, ptr %3, i32 0, i32 4
  %5 = load i32, ptr %4, align 8, !tbaa !41
  %6 = load ptr, ptr %2, align 8, !tbaa !3
  %7 = getelementptr inbounds nuw %struct.Gia_Man_t_, ptr %6, i32 0, i32 11
  %8 = load ptr, ptr %7, align 8, !tbaa !42
  %9 = call i32 @Vec_IntSize(ptr noundef %8)
  %10 = sub nsw i32 %5, %9
  %11 = load ptr, ptr %2, align 8, !tbaa !3
  %12 = getelementptr inbounds nuw %struct.Gia_Man_t_, ptr %11, i32 0, i32 12
  %13 = load ptr, ptr %12, align 8, !tbaa !43
  %14 = call i32 @Vec_IntSize(ptr noundef %13)
  %15 = sub nsw i32 %10, %14
  %16 = sub nsw i32 %15, 1
  ret i32 %16
}

; Function Attrs: inlinehint nounwind uwtable
define internal i32 @Vec_IntSize(ptr noundef %0) #1 {
  %2 = alloca ptr, align 8
  store ptr %0, ptr %2, align 8, !tbaa !35
  %3 = load ptr, ptr %2, align 8, !tbaa !35
  %4 = getelementptr inbounds nuw %struct.Vec_Int_t_, ptr %3, i32 0, i32 1
  %5 = load i32, ptr %4, align 4, !tbaa !38
  ret i32 %5
}

; Function Attrs: nounwind uwtable
define void @Gia_ManHashProfile(ptr noundef %0) #0 {
  %2 = alloca ptr, align 8
  %3 = alloca i32, align 4
  %4 = alloca i32, align 4
  %5 = alloca i32, align 4
  %6 = alloca i32, align 4
  store ptr %0, ptr %2, align 8, !tbaa !3
  call void @llvm.lifetime.start.p0(i64 4, ptr %3) #12
  call void @llvm.lifetime.start.p0(i64 4, ptr %4) #12
  call void @llvm.lifetime.start.p0(i64 4, ptr %5) #12
  call void @llvm.lifetime.start.p0(i64 4, ptr %6) #12
  %7 = load ptr, ptr %2, align 8, !tbaa !3
  %8 = getelementptr inbounds nuw %struct.Gia_Man_t_, ptr %7, i32 0, i32 14
  %9 = call i32 @Vec_IntSize(ptr noundef %8)
  %10 = load ptr, ptr %2, align 8, !tbaa !3
  %11 = call i32 @Gia_ManAndNum(ptr noundef %10)
  %12 = call i32 (ptr, ...) @printf(ptr noundef @.str, i32 noundef %9, i32 noundef %11)
  %13 = load ptr, ptr %2, align 8, !tbaa !3
  %14 = getelementptr inbounds nuw %struct.Gia_Man_t_, ptr %13, i32 0, i32 97
  %15 = load i64, ptr %14, align 8, !tbaa !51
  %16 = trunc i64 %15 to i32
  %17 = load ptr, ptr %2, align 8, !tbaa !3
  %18 = getelementptr inbounds nuw %struct.Gia_Man_t_, ptr %17, i32 0, i32 98
  %19 = load i64, ptr %18, align 8, !tbaa !52
  %20 = trunc i64 %19 to i32
  %21 = call i32 (ptr, ...) @printf(ptr noundef @.str.1, i32 noundef %16, i32 noundef %20)
  %22 = load ptr, ptr %2, align 8, !tbaa !3
  %23 = getelementptr inbounds nuw %struct.Gia_Man_t_, ptr %22, i32 0, i32 14
  %24 = call i32 @Vec_IntSize(ptr noundef %23)
  %25 = call i32 @Abc_MinInt(i32 noundef 1000, i32 noundef %24)
  store i32 %25, ptr %6, align 4, !tbaa !8
  store i32 0, ptr %4, align 4, !tbaa !8
  br label %26

26:                                               ; preds = %59, %1
  %27 = load i32, ptr %4, align 4, !tbaa !8
  %28 = load i32, ptr %6, align 4, !tbaa !8
  %29 = icmp slt i32 %27, %28
  br i1 %29, label %30, label %62

30:                                               ; preds = %26
  store i32 0, ptr %5, align 4, !tbaa !8
  %31 = load ptr, ptr %2, align 8, !tbaa !3
  %32 = getelementptr inbounds nuw %struct.Gia_Man_t_, ptr %31, i32 0, i32 14
  %33 = load i32, ptr %4, align 4, !tbaa !8
  %34 = call i32 @Vec_IntEntry(ptr noundef %32, i32 noundef %33)
  store i32 %34, ptr %3, align 4, !tbaa !8
  br label %35

35:                                               ; preds = %50, %30
  %36 = load i32, ptr %3, align 4, !tbaa !8
  %37 = icmp ne i32 %36, 0
  br i1 %37, label %38, label %52

38:                                               ; preds = %35
  %39 = load i32, ptr %5, align 4, !tbaa !8
  %40 = add nsw i32 %39, 1
  store i32 %40, ptr %5, align 4, !tbaa !8
  br label %41

41:                                               ; preds = %38
  %42 = load i32, ptr %3, align 4, !tbaa !8
  %43 = icmp ne i32 %42, 0
  br i1 %43, label %44, label %49

44:                                               ; preds = %41
  %45 = load ptr, ptr %2, align 8, !tbaa !3
  %46 = getelementptr inbounds nuw %struct.Gia_Man_t_, ptr %45, i32 0, i32 13
  %47 = load i32, ptr %3, align 4, !tbaa !8
  %48 = call i32 @Vec_IntEntry(ptr noundef %46, i32 noundef %47)
  br label %50

49:                                               ; preds = %41
  br label %50

50:                                               ; preds = %49, %44
  %51 = phi i32 [ %48, %44 ], [ 0, %49 ]
  store i32 %51, ptr %3, align 4, !tbaa !8
  br label %35, !llvm.loop !53

52:                                               ; preds = %35
  %53 = load i32, ptr %5, align 4, !tbaa !8
  %54 = icmp ne i32 %53, 0
  br i1 %54, label %55, label %58

55:                                               ; preds = %52
  %56 = load i32, ptr %5, align 4, !tbaa !8
  %57 = call i32 (ptr, ...) @printf(ptr noundef @.str.2, i32 noundef %56)
  br label %58

58:                                               ; preds = %55, %52
  br label %59

59:                                               ; preds = %58
  %60 = load i32, ptr %4, align 4, !tbaa !8
  %61 = add nsw i32 %60, 1
  store i32 %61, ptr %4, align 4, !tbaa !8
  br label %26, !llvm.loop !54

62:                                               ; preds = %26
  %63 = call i32 (ptr, ...) @printf(ptr noundef @.str.3)
  call void @llvm.lifetime.end.p0(i64 4, ptr %6) #12
  call void @llvm.lifetime.end.p0(i64 4, ptr %5) #12
  call void @llvm.lifetime.end.p0(i64 4, ptr %4) #12
  call void @llvm.lifetime.end.p0(i64 4, ptr %3) #12
  ret void
}