; Function Attrs: nofree nounwind uwtable
define void @Gia_ManHashProfile(ptr noundef readonly captures(none) %0) local_unnamed_addr #5 {
  %2 = getelementptr i8, ptr %0, i64 100
  %.val19 = load i32, ptr %2, align 4, !tbaa !3
  %3 = getelementptr inbounds nuw i8, ptr %0, i64 24
  %4 = load i32, ptr %3, align 8, !tbaa !34
  %5 = getelementptr inbounds nuw i8, ptr %0, i64 64
  %6 = load ptr, ptr %5, align 8, !tbaa !35
  %7 = getelementptr i8, ptr %6, i64 4
  %.val.i = load i32, ptr %7, align 4, !tbaa !3
  %8 = getelementptr inbounds nuw i8, ptr %0, i64 72
  %9 = load ptr, ptr %8, align 8, !tbaa !36
  %10 = getelementptr i8, ptr %9, i64 4
  %.val3.i = load i32, ptr %10, align 4, !tbaa !3
  %11 = add i32 %.val3.i, %.val.i
  %12 = xor i32 %11, -1
  %13 = add i32 %4, %12
  %14 = tail call i32 (ptr, ...) @printf(ptr noundef nonnull dereferenceable(1) @.str, i32 noundef %.val19, i32 noundef %13)
  %15 = getelementptr inbounds nuw i8, ptr %0, i64 752
  %16 = load i64, ptr %15, align 8, !tbaa !45
  %17 = trunc i64 %16 to i32
  %18 = getelementptr inbounds nuw i8, ptr %0, i64 760
  %19 = load i64, ptr %18, align 8, !tbaa !46
  %20 = trunc i64 %19 to i32
  %21 = tail call i32 (ptr, ...) @printf(ptr noundef nonnull dereferenceable(1) @.str.1, i32 noundef %17, i32 noundef %20)
  %.val = load i32, ptr %2, align 4, !tbaa !3
  %22 = icmp sgt i32 %.val, 0
  br i1 %22, label %.lr.ph28, label %._crit_edge29

.lr.ph28:                                         ; preds = %1
  %23 = tail call i32 @llvm.umin.i32(i32 %.val, i32 1000)
  %24 = getelementptr i8, ptr %0, i64 104
  %25 = getelementptr i8, ptr %0, i64 88
  %wide.trip.count = zext nneg i32 %23 to i64
  br label %26

26:                                               ; preds = %.lr.ph28, %._crit_edge.thread
  %indvars.iv = phi i64 [ 0, %.lr.ph28 ], [ %indvars.iv.next, %._crit_edge.thread ]
  %.val21 = load ptr, ptr %24, align 8, !tbaa !10
  %27 = getelementptr inbounds nuw i32, ptr %.val21, i64 %indvars.iv
  %.022 = load i32, ptr %27, align 4, !tbaa !11
  %.not23 = icmp eq i32 %.022, 0
  br i1 %.not23, label %._crit_edge.thread, label %.lr.ph

.lr.ph:                                           ; preds = %26
  %.val20 = load ptr, ptr %25, align 8, !tbaa !10
  br label %28

28:                                               ; preds = %.lr.ph, %28
  %.025 = phi i32 [ %.022, %.lr.ph ], [ %.0, %28 ]
  %.01624 = phi i32 [ 0, %.lr.ph ], [ %29, %28 ]
  %29 = add nuw nsw i32 %.01624, 1
  %30 = sext i32 %.025 to i64
  %31 = getelementptr inbounds i32, ptr %.val20, i64 %30
  %.0 = load i32, ptr %31, align 4, !tbaa !11
  %.not = icmp eq i32 %.0, 0
  br i1 %.not, label %._crit_edge, label %28, !llvm.loop !47

._crit_edge:                                      ; preds = %28
  %32 = tail call i32 (ptr, ...) @printf(ptr noundef nonnull dereferenceable(1) @.str.2, i32 noundef %29)
  br label %._crit_edge.thread

._crit_edge.thread:                               ; preds = %26, %._crit_edge
  %indvars.iv.next = add nuw nsw i64 %indvars.iv, 1
  %exitcond.not = icmp eq i64 %indvars.iv.next, %wide.trip.count
  br i1 %exitcond.not, label %._crit_edge29, label %26, !llvm.loop !48

._crit_edge29:                                    ; preds = %._crit_edge.thread, %1
  %putchar = tail call i32 @putchar(i32 10)
  ret void
}